target datalayout = "e-m:e-p270:32:32-p271:32:32-p272:64:64-i64:64-i128:128-f80:128-n8:16:32:64-S128"
target triple = "x86_64-pc-linux-gnu"

%struct.rb_data_type_struct = type { ptr, %struct.anon.12, ptr, ptr, i64 }
%struct.anon.12 = type { ptr, ptr, ptr, ptr, [1 x ptr] }
%struct.rof_data = type { i64, i64 }
%struct.RData = type { %struct.RBasic, ptr, ptr, ptr }
%struct.RBasic = type { i64, i64 }

@iow_data_type = internal constant %struct.rb_data_type_struct { ptr @.str.95, %struct.anon.12 { ptr @iow_mark, ptr null, ptr @iow_size, ptr null, [1 x ptr] zeroinitializer }, ptr null, ptr null, i64 1 }, align 8

; Function Attrs: inlinehint nounwind sspstrong willreturn memory(none) uwtable
define internal zeroext i1 @RB_IMMEDIATE_P(i64 noundef %0) #4 {
  %2 = alloca i64, align 8
  store i64 %0, ptr %2, align 8, !tbaa !6
  %3 = load i64, ptr %2, align 8, !tbaa !6
  %4 = and i64 %3, 7
  %5 = icmp ne i64 %4, 0
  ret i1 %5
}

; Function Attrs: inlinehint nounwind sspstrong willreturn memory(none) uwtable
define internal zeroext i1 @RB_SPECIAL_CONST_P(i64 noundef %0) #4 {
  %2 = alloca i64, align 8
  store i64 %0, ptr %2, align 8, !tbaa !6
  %3 = load i64, ptr %2, align 8, !tbaa !6
  %4 = icmp eq i64 %3, 0
  br i1 %4, label %8, label %5

5:                                                ; preds = %1
  %6 = load i64, ptr %2, align 8, !tbaa !6
  %7 = call zeroext i1 @RB_IMMEDIATE_P(i64 noundef %6) #18
  br label %8

8:                                                ; preds = %5, %1
  %9 = phi i1 [ true, %1 ], [ %7, %5 ]
  ret i1 %9
}

; Function Attrs: nounwind sspstrong uwtable
define internal i64 @reachable_objects_from(i64 noundef %0, i64 noundef %1) #0 {
  %3 = alloca i64, align 8
  %4 = alloca i64, align 8
  %5 = alloca i64, align 8
  %6 = alloca %struct.rof_data, align 8
  store i64 %0, ptr %4, align 8, !tbaa !6
  store i64 %1, ptr %5, align 8, !tbaa !6
  %7 = load i64, ptr %5, align 8, !tbaa !6
  %8 = call zeroext i1 @RB_SPECIAL_CONST_P(i64 noundef %7) #18
  br i1 %8, label %28, label %9

9:                                                ; preds = %2
  call void @llvm.lifetime.start.p0(i64 16, ptr %6) #15
  %10 = load i64, ptr %5, align 8, !tbaa !6
  %11 = call i32 @rb_typeddata_is_kind_of(i64 noundef %10, ptr noundef @iow_data_type)
  %12 = icmp ne i32 %11, 0
  br i1 %12, label %13, label %19

13:                                               ; preds = %9
  %14 = load i64, ptr %5, align 8, !tbaa !6
  %15 = inttoptr i64 %14 to ptr
  %16 = getelementptr inbounds nuw %struct.RData, ptr %15, i32 0, i32 3
  %17 = load ptr, ptr %16, align 8, !tbaa !23
  %18 = ptrtoint ptr %17 to i64
  store i64 %18, ptr %5, align 8, !tbaa !6
  br label %19

19:                                               ; preds = %13, %9
  %20 = call i64 @rb_ident_hash_new()
  %21 = call i64 @rb_obj_hide(i64 noundef %20)
  %22 = getelementptr inbounds nuw %struct.rof_data, ptr %6, i32 0, i32 0
  store i64 %21, ptr %22, align 8, !tbaa !26
  %23 = call i64 @rb_ary_new()
  %24 = getelementptr inbounds nuw %struct.rof_data, ptr %6, i32 0, i32 1
  store i64 %23, ptr %24, align 8, !tbaa !28
  %25 = load i64, ptr %5, align 8, !tbaa !6
  call void @rb_objspace_reachable_objects_from(i64 noundef %25, ptr noundef @reachable_object_from_i, ptr noundef %6)
  %26 = getelementptr inbounds nuw %struct.rof_data, ptr %6, i32 0, i32 1
  %27 = load i64, ptr %26, align 8, !tbaa !28
  store i64 %27, ptr %3, align 8
  call void @llvm.lifetime.end.p0(i64 16, ptr %6) #15
  br label %29

28:                                               ; preds = %2
  store i64 4, ptr %3, align 8
  br label %29

29:                                               ; preds = %28, %19
  %30 = load i64, ptr %3, align 8
  ret i64 %30
}