; Function Attrs: nounwind sspstrong uwtable
define internal i64 @reachable_objects_from(i64 %0, i64 noundef %1) #0 {
  %3 = alloca %struct.rof_data, align 8
  %4 = icmp eq i64 %1, 0
  %5 = and i64 %1, 7
  %6 = icmp ne i64 %5, 0
  %7 = or i1 %4, %6
  br i1 %7, label %21, label %8

8:                                                ; preds = %2
  call void @llvm.lifetime.start.p0(i64 16, ptr nonnull %3) #7
  %9 = tail call i32 @rb_typeddata_is_kind_of(i64 noundef %1, ptr noundef nonnull @iow_data_type) #7
  %.not = icmp eq i32 %9, 0
  br i1 %.not, label %15, label %10

10:                                               ; preds = %8
  %11 = inttoptr i64 %1 to ptr
  %12 = getelementptr inbounds nuw i8, ptr %11, i64 32
  %13 = load ptr, ptr %12, align 8, !tbaa !22
  %14 = ptrtoint ptr %13 to i64
  br label %15

15:                                               ; preds = %10, %8
  %.0 = phi i64 [ %14, %10 ], [ %1, %8 ]
  %16 = tail call i64 @rb_ident_hash_new() #7
  %17 = tail call i64 @rb_obj_hide(i64 noundef %16) #7
  store i64 %17, ptr %3, align 8, !tbaa !25
  %18 = tail call i64 @rb_ary_new() #7
  %19 = getelementptr inbounds nuw i8, ptr %3, i64 8
  store i64 %18, ptr %19, align 8, !tbaa !27
  call void @rb_objspace_reachable_objects_from(i64 noundef %.0, ptr noundef nonnull @reachable_object_from_i, ptr noundef nonnull %3) #7
  %20 = load i64, ptr %19, align 8, !tbaa !27
  call void @llvm.lifetime.end.p0(i64 16, ptr nonnull %3) #7
  br label %21

21:                                               ; preds = %2, %15
  %.05 = phi i64 [ %20, %15 ], [ 4, %2 ]
  ret i64 %.05
}